target datalayout = "e-m:e-p270:32:32-p271:32:32-p272:64:64-i64:64-i128:128-f80:128-n8:16:32:64-S128"
target triple = "x86_64-pc-linux-gnu"

; Function Attrs: nounwind uwtable
define internal void @maskedmerge16(ptr noundef %0, ptr noundef %1, ptr noundef %2, ptr noundef %3, i64 noundef %4, i64 noundef %5, i64 noundef %6, i64 noundef %7, i32 noundef %8, i32 noundef %9, i32 noundef %10, i32 noundef %11) #2 {
  %13 = alloca ptr, align 8
  %14 = alloca ptr, align 8
  %15 = alloca ptr, align 8
  %16 = alloca ptr, align 8
  %17 = alloca i64, align 8
  %18 = alloca i64, align 8
  %19 = alloca i64, align 8
  %20 = alloca i64, align 8
  %21 = alloca i32, align 4
  %22 = alloca i32, align 4
  %23 = alloca i32, align 4
  %24 = alloca i32, align 4
  %25 = alloca ptr, align 8
  %26 = alloca ptr, align 8
  %27 = alloca ptr, align 8
  %28 = alloca ptr, align 8
  %29 = alloca i32, align 4
  %30 = alloca i32, align 4
  %31 = alloca i32, align 4
  %32 = alloca i16, align 2
  %33 = alloca i32, align 4
  store ptr %0, ptr %13, align 8, !tbaa !54
  store ptr %1, ptr %14, align 8, !tbaa !54
  store ptr %2, ptr %15, align 8, !tbaa !54
  store ptr %3, ptr %16, align 8, !tbaa !54
  store i64 %4, ptr %17, align 8, !tbaa !55
  store i64 %5, ptr %18, align 8, !tbaa !55
  store i64 %6, ptr %19, align 8, !tbaa !55
  store i64 %7, ptr %20, align 8, !tbaa !55
  store i32 %8, ptr %21, align 4, !tbaa !44
  store i32 %9, ptr %22, align 4, !tbaa !44
  store i32 %10, ptr %23, align 4, !tbaa !44
  store i32 %11, ptr %24, align 4, !tbaa !44
  call void @llvm.lifetime.start.p0(i64 8, ptr %25) #10
  %34 = load ptr, ptr %13, align 8, !tbaa !54
  store ptr %34, ptr %25, align 8, !tbaa !62
  call void @llvm.lifetime.start.p0(i64 8, ptr %26) #10
  %35 = load ptr, ptr %14, align 8, !tbaa !54
  store ptr %35, ptr %26, align 8, !tbaa !62
  call void @llvm.lifetime.start.p0(i64 8, ptr %27) #10
  %36 = load ptr, ptr %15, align 8, !tbaa !54
  store ptr %36, ptr %27, align 8, !tbaa !62
  call void @llvm.lifetime.start.p0(i64 8, ptr %28) #10
  %37 = load ptr, ptr %16, align 8, !tbaa !54
  store ptr %37, ptr %28, align 8, !tbaa !62
  %38 = load i64, ptr %20, align 8, !tbaa !55
  %39 = udiv i64 %38, 2
  store i64 %39, ptr %20, align 8, !tbaa !55
  %40 = load i64, ptr %17, align 8, !tbaa !55
  %41 = udiv i64 %40, 2
  store i64 %41, ptr %17, align 8, !tbaa !55
  %42 = load i64, ptr %18, align 8, !tbaa !55
  %43 = udiv i64 %42, 2
  store i64 %43, ptr %18, align 8, !tbaa !55
  %44 = load i64, ptr %19, align 8, !tbaa !55
  %45 = udiv i64 %44, 2
  store i64 %45, ptr %19, align 8, !tbaa !55
  call void @llvm.lifetime.start.p0(i64 4, ptr %29) #10
  store i32 0, ptr %29, align 4, !tbaa !44
  br label %46

46:                                               ; preds = %116, %12
  %47 = load i32, ptr %29, align 4, !tbaa !44
  %48 = load i32, ptr %22, align 4, !tbaa !44
  %49 = icmp slt i32 %47, %48
  br i1 %49, label %51, label %50

50:                                               ; preds = %46
  store i32 2, ptr %30, align 4
  call void @llvm.lifetime.end.p0(i64 4, ptr %29) #10
  br label %119

51:                                               ; preds = %46
  call void @llvm.lifetime.start.p0(i64 4, ptr %31) #10
  store i32 0, ptr %31, align 4, !tbaa !44
  br label %52

52:                                               ; preds = %100, %51
  %53 = load i32, ptr %31, align 4, !tbaa !44
  %54 = load i32, ptr %21, align 4, !tbaa !44
  %55 = icmp slt i32 %53, %54
  br i1 %55, label %57, label %56

56:                                               ; preds = %52
  store i32 5, ptr %30, align 4
  call void @llvm.lifetime.end.p0(i64 4, ptr %31) #10
  br label %103

57:                                               ; preds = %52
  call void @llvm.lifetime.start.p0(i64 2, ptr %32) #10
  %58 = load i32, ptr %24, align 4, !tbaa !44
  %59 = load ptr, ptr %27, align 8, !tbaa !62
  %60 = load i32, ptr %31, align 4, !tbaa !44
  %61 = sext i32 %60 to i64
  %62 = getelementptr inbounds i16, ptr %59, i64 %61
  %63 = load i16, ptr %62, align 2, !tbaa !57
  %64 = zext i16 %63 to i32
  %65 = sub nsw i32 %58, %64
  %66 = trunc i32 %65 to i16
  store i16 %66, ptr %32, align 2, !tbaa !57
  call void @llvm.lifetime.start.p0(i64 4, ptr %33) #10
  %67 = load ptr, ptr %25, align 8, !tbaa !62
  %68 = load i32, ptr %31, align 4, !tbaa !44
  %69 = sext i32 %68 to i64
  %70 = getelementptr inbounds i16, ptr %67, i64 %69
  %71 = load i16, ptr %70, align 2, !tbaa !57
  %72 = zext i16 %71 to i32
  %73 = load i16, ptr %32, align 2, !tbaa !57
  %74 = zext i16 %73 to i32
  %75 = mul nsw i32 %72, %74
  %76 = load ptr, ptr %27, align 8, !tbaa !62
  %77 = load i32, ptr %31, align 4, !tbaa !44
  %78 = sext i32 %77 to i64
  %79 = getelementptr inbounds i16, ptr %76, i64 %78
  %80 = load i16, ptr %79, align 2, !tbaa !57
  %81 = zext i16 %80 to i32
  %82 = load ptr, ptr %26, align 8, !tbaa !62
  %83 = load i32, ptr %31, align 4, !tbaa !44
  %84 = sext i32 %83 to i64
  %85 = getelementptr inbounds i16, ptr %82, i64 %84
  %86 = load i16, ptr %85, align 2, !tbaa !57
  %87 = zext i16 %86 to i32
  %88 = mul nsw i32 %81, %87
  %89 = load i32, ptr %23, align 4, !tbaa !44
  %90 = add nsw i32 %88, %89
  %91 = add i32 %75, %90
  %92 = load i32, ptr %24, align 4, !tbaa !44
  %93 = udiv i32 %91, %92
  store i32 %93, ptr %33, align 4, !tbaa !44
  %94 = load i32, ptr %33, align 4, !tbaa !44
  %95 = trunc i32 %94 to i16
  %96 = load ptr, ptr %28, align 8, !tbaa !62
  %97 = load i32, ptr %31, align 4, !tbaa !44
  %98 = sext i32 %97 to i64
  %99 = getelementptr inbounds i16, ptr %96, i64 %98
  store i16 %95, ptr %99, align 2, !tbaa !57
  call void @llvm.lifetime.end.p0(i64 4, ptr %33) #10
  call void @llvm.lifetime.end.p0(i64 2, ptr %32) #10
  br label %100

100:                                              ; preds = %57
  %101 = load i32, ptr %31, align 4, !tbaa !44
  %102 = add nsw i32 %101, 1
  store i32 %102, ptr %31, align 4, !tbaa !44
  br label %52, !llvm.loop !64

103:                                              ; preds = %56
  %104 = load i64, ptr %20, align 8, !tbaa !55
  %105 = load ptr, ptr %28, align 8, !tbaa !62
  %106 = getelementptr inbounds i16, ptr %105, i64 %104
  store ptr %106, ptr %28, align 8, !tbaa !62
  %107 = load i64, ptr %17, align 8, !tbaa !55
  %108 = load ptr, ptr %25, align 8, !tbaa !62
  %109 = getelementptr inbounds i16, ptr %108, i64 %107
  store ptr %109, ptr %25, align 8, !tbaa !62
  %110 = load i64, ptr %18, align 8, !tbaa !55
  %111 = load ptr, ptr %26, align 8, !tbaa !62
  %112 = getelementptr inbounds i16, ptr %111, i64 %110
  store ptr %112, ptr %26, align 8, !tbaa !62
  %113 = load i64, ptr %19, align 8, !tbaa !55
  %114 = load ptr, ptr %27, align 8, !tbaa !62
  %115 = getelementptr inbounds i16, ptr %114, i64 %113
  store ptr %115, ptr %27, align 8, !tbaa !62
  br label %116

116:                                              ; preds = %103
  %117 = load i32, ptr %29, align 4, !tbaa !44
  %118 = add nsw i32 %117, 1
  store i32 %118, ptr %29, align 4, !tbaa !44
  br label %46, !llvm.loop !65

119:                                              ; preds = %50
  call void @llvm.lifetime.end.p0(i64 8, ptr %28) #10
  call void @llvm.lifetime.end.p0(i64 8, ptr %27) #10
  call void @llvm.lifetime.end.p0(i64 8, ptr %26) #10
  call void @llvm.lifetime.end.p0(i64 8, ptr %25) #10
  ret void
}