; Function Attrs: nofree norecurse nosync nounwind memory(argmem: readwrite) uwtable
define internal void @maskedmerge16(ptr noundef readonly captures(none) %0, ptr noundef readonly captures(none) %1, ptr noundef readonly captures(none) %2, ptr noundef writeonly captures(none) %3, i64 noundef %4, i64 noundef %5, i64 noundef %6, i64 noundef %7, i32 noundef %8, i32 noundef %9, i32 noundef %10, i32 noundef %11) #4 {
  %13 = lshr i64 %7, 1
  %14 = lshr i64 %4, 1
  %15 = lshr i64 %5, 1
  %16 = lshr i64 %6, 1
  %17 = icmp sgt i32 %9, 0
  br i1 %17, label %.preheader.lr.ph, label %._crit_edge47

.preheader.lr.ph:                                 ; preds = %12
  %18 = icmp sgt i32 %8, 0
  %19 = trunc i32 %11 to i16
  br i1 %18, label %.preheader.us.preheader, label %._crit_edge47

.preheader.us.preheader:                          ; preds = %.preheader.lr.ph
  %wide.trip.count = zext nneg i32 %8 to i64
  br label %.preheader.us

.preheader.us:                                    ; preds = %.preheader.us.preheader, %._crit_edge.us
  %.03646.us = phi i32 [ %43, %._crit_edge.us ], [ 0, %.preheader.us.preheader ]
  %.03745.us = phi ptr [ %39, %._crit_edge.us ], [ %3, %.preheader.us.preheader ]
  %.03844.us = phi ptr [ %42, %._crit_edge.us ], [ %2, %.preheader.us.preheader ]
  %.03943.us = phi ptr [ %41, %._crit_edge.us ], [ %1, %.preheader.us.preheader ]
  %.04042.us = phi ptr [ %40, %._crit_edge.us ], [ %0, %.preheader.us.preheader ]
  br label %20

20:                                               ; preds = %.preheader.us, %20
  %indvars.iv = phi i64 [ 0, %.preheader.us ], [ %indvars.iv.next, %20 ]
  %21 = getelementptr inbounds nuw i16, ptr %.03844.us, i64 %indvars.iv
  %22 = load i16, ptr %21, align 2, !tbaa !51
  %23 = zext i16 %22 to i32
  %24 = sub i16 %19, %22
  %25 = getelementptr inbounds nuw i16, ptr %.04042.us, i64 %indvars.iv
  %26 = load i16, ptr %25, align 2, !tbaa !51
  %27 = zext i16 %26 to i32
  %28 = zext i16 %24 to i32
  %29 = mul nuw nsw i32 %27, %28
  %30 = getelementptr inbounds nuw i16, ptr %.03943.us, i64 %indvars.iv
  %31 = load i16, ptr %30, align 2, !tbaa !51
  %32 = zext i16 %31 to i32
  %33 = mul nuw nsw i32 %32, %23
  %34 = add i32 %29, %10
  %35 = add i32 %34, %33
  %36 = udiv i32 %35, %11
  %37 = trunc i32 %36 to i16
  %38 = getelementptr inbounds nuw i16, ptr %.03745.us, i64 %indvars.iv
  store i16 %37, ptr %38, align 2, !tbaa !51
  %indvars.iv.next = add nuw nsw i64 %indvars.iv, 1
  %exitcond.not = icmp eq i64 %indvars.iv.next, %wide.trip.count
  br i1 %exitcond.not, label %._crit_edge.us, label %20, !llvm.loop !53

._crit_edge.us:                                   ; preds = %20
  %39 = getelementptr inbounds nuw i16, ptr %.03745.us, i64 %13
  %40 = getelementptr inbounds nuw i16, ptr %.04042.us, i64 %14
  %41 = getelementptr inbounds nuw i16, ptr %.03943.us, i64 %15
  %42 = getelementptr inbounds nuw i16, ptr %.03844.us, i64 %16
  %43 = add nuw nsw i32 %.03646.us, 1
  %exitcond50.not = icmp eq i32 %43, %9
  br i1 %exitcond50.not, label %._crit_edge47, label %.preheader.us, !llvm.loop !54

._crit_edge47:                                    ; preds = %._crit_edge.us, %.preheader.lr.ph, %12
  ret void
}